; ModuleID = '63/2054.c'
source_filename = "63/2054.c"
target datalayout = "e-m:e-p270:32:32-p271:32:32-p272:64:64-i64:64-f80:128-n8:16:32:64-S128"
target triple = "x86_64-pc-linux-gnu"

@.str = private unnamed_addr constant [6 x i8] c"%d %d\00", align 1
@.str.1 = private unnamed_addr constant [3 x i8] c"%d\00", align 1
@.str.2 = private unnamed_addr constant [4 x i8] c"%d\0A\00", align 1
@.str.3 = private unnamed_addr constant [4 x i8] c"%d \00", align 1

; Function Attrs: noinline nounwind uwtable
define dso_local i32 @main() #0 {
  %1 = alloca i32, align 4
  %2 = alloca [100 x [100 x i32]], align 16
  %3 = alloca [100 x [100 x i32]], align 16
  %4 = alloca [100 x [100 x i32]], align 16
  %5 = alloca i32, align 4
  %6 = alloca i32, align 4
  %7 = alloca i32, align 4
  %8 = alloca i32, align 4
  %9 = alloca i32, align 4
  %10 = alloca i32, align 4
  %11 = alloca i32, align 4
  store i32 0, i32* %1, align 4
  %12 = getelementptr inbounds [100 x [100 x i32]], [100 x [100 x i32]]* %4, i64 0, i64 0
  %13 = bitcast [100 x i32]* %12 to i8*
  call void @llvm.memset.p0i8.i64(i8* align 16 %13, i8 0, i64 40000, i1 false)
  %14 = call i32 (i8*, ...) @__isoc99_scanf(i8* getelementptr inbounds ([6 x i8], [6 x i8]* @.str, i64 0, i64 0), i32* %5, i32* %7)
  store i32 0, i32* %9, align 4
  br label %15

15:                                               ; preds = %36, %0
  %16 = load i32, i32* %9, align 4
  %17 = load i32, i32* %5, align 4
  %18 = icmp slt i32 %16, %17
  br i1 %18, label %19, label %39

19:                                               ; preds = %15
  store i32 0, i32* %10, align 4
  br label %20

20:                                               ; preds = %32, %19
  %21 = load i32, i32* %10, align 4
  %22 = load i32, i32* %7, align 4
  %23 = icmp slt i32 %21, %22
  br i1 %23, label %24, label %35

24:                                               ; preds = %20
  %25 = load i32, i32* %9, align 4
  %26 = sext i32 %25 to i64
  %27 = getelementptr inbounds [100 x [100 x i32]], [100 x [100 x i32]]* %2, i64 0, i64 %26
  %28 = load i32, i32* %10, align 4
  %29 = sext i32 %28 to i64
  %30 = getelementptr inbounds [100 x i32], [100 x i32]* %27, i64 0, i64 %29
  %31 = call i32 (i8*, ...) @__isoc99_scanf(i8* getelementptr inbounds ([3 x i8], [3 x i8]* @.str.1, i64 0, i64 0), i32* %30)
  br label %32

32:                                               ; preds = %24
  %33 = load i32, i32* %10, align 4
  %34 = add nsw i32 %33, 1
  store i32 %34, i32* %10, align 4
  br label %20

35:                                               ; preds = %20
  br label %36

36:                                               ; preds = %35
  %37 = load i32, i32* %9, align 4
  %38 = add nsw i32 %37, 1
  store i32 %38, i32* %9, align 4
  br label %15

39:                                               ; preds = %15
  %40 = call i32 (i8*, ...) @__isoc99_scanf(i8* getelementptr inbounds ([6 x i8], [6 x i8]* @.str, i64 0, i64 0), i32* %6, i32* %8)
  store i32 0, i32* %9, align 4
  br label %41

41:                                               ; preds = %62, %39
  %42 = load i32, i32* %9, align 4
  %43 = load i32, i32* %6, align 4
  %44 = icmp slt i32 %42, %43
  br i1 %44, label %45, label %65

45:                                               ; preds = %41
  store i32 0, i32* %10, align 4
  br label %46

46:                                               ; preds = %58, %45
  %47 = load i32, i32* %10, align 4
  %48 = load i32, i32* %8, align 4
  %49 = icmp slt i32 %47, %48
  br i1 %49, label %50, label %61

50:                                               ; preds = %46
  %51 = load i32, i32* %9, align 4
  %52 = sext i32 %51 to i64
  %53 = getelementptr inbounds [100 x [100 x i32]], [100 x [100 x i32]]* %3, i64 0, i64 %52
  %54 = load i32, i32* %10, align 4
  %55 = sext i32 %54 to i64
  %56 = getelementptr inbounds [100 x i32], [100 x i32]* %53, i64 0, i64 %55
  %57 = call i32 (i8*, ...) @__isoc99_scanf(i8* getelementptr inbounds ([3 x i8], [3 x i8]* @.str.1, i64 0, i64 0), i32* %56)
  br label %58

58:                                               ; preds = %50
  %59 = load i32, i32* %10, align 4
  %60 = add nsw i32 %59, 1
  store i32 %60, i32* %10, align 4
  br label %46

61:                                               ; preds = %46
  br label %62

62:                                               ; preds = %61
  %63 = load i32, i32* %9, align 4
  %64 = add nsw i32 %63, 1
  store i32 %64, i32* %9, align 4
  br label %41

65:                                               ; preds = %41
  store i32 0, i32* %9, align 4
  br label %66

66:                                               ; preds = %141, %65
  %67 = load i32, i32* %9, align 4
  %68 = load i32, i32* %5, align 4
  %69 = icmp slt i32 %67, %68
  br i1 %69, label %70, label %144

70:                                               ; preds = %66
  store i32 0, i32* %10, align 4
  br label %71

71:                                               ; preds = %137, %70
  %72 = load i32, i32* %10, align 4
  %73 = load i32, i32* %8, align 4
  %74 = icmp slt i32 %72, %73
  br i1 %74, label %75, label %140

75:                                               ; preds = %71
  store i32 0, i32* %11, align 4
  br label %76

76:                                               ; preds = %110, %75
  %77 = load i32, i32* %11, align 4
  %78 = load i32, i32* %6, align 4
  %79 = icmp slt i32 %77, %78
  br i1 %79, label %80, label %113

80:                                               ; preds = %76
  %81 = load i32, i32* %9, align 4
  %82 = sext i32 %81 to i64
  %83 = getelementptr inbounds [100 x [100 x i32]], [100 x [100 x i32]]* %4, i64 0, i64 %82
  %84 = load i32, i32* %10, align 4
  %85 = sext i32 %84 to i64
  %86 = getelementptr inbounds [100 x i32], [100 x i32]* %83, i64 0, i64 %85
  %87 = load i32, i32* %86, align 4
  %88 = load i32, i32* %9, align 4
  %89 = sext i32 %88 to i64
  %90 = getelementptr inbounds [100 x [100 x i32]], [100 x [100 x i32]]* %2, i64 0, i64 %89
  %91 = load i32, i32* %11, align 4
  %92 = sext i32 %91 to i64
  %93 = getelementptr inbounds [100 x i32], [100 x i32]* %90, i64 0, i64 %92
  %94 = load i32, i32* %93, align 4
  %95 = load i32, i32* %11, align 4
  %96 = sext i32 %95 to i64
  %97 = getelementptr inbounds [100 x [100 x i32]], [100 x [100 x i32]]* %3, i64 0, i64 %96
  %98 = load i32, i32* %10, align 4
  %99 = sext i32 %98 to i64
  %100 = getelementptr inbounds [100 x i32], [100 x i32]* %97, i64 0, i64 %99
  %101 = load i32, i32* %100, align 4
  %102 = mul nsw i32 %94, %101
  %103 = add nsw i32 %87, %102
  %104 = load i32, i32* %9, align 4
  %105 = sext i32 %104 to i64
  %106 = getelementptr inbounds [100 x [100 x i32]], [100 x [100 x i32]]* %4, i64 0, i64 %105
  %107 = load i32, i32* %10, align 4
  %108 = sext i32 %107 to i64
  %109 = getelementptr inbounds [100 x i32], [100 x i32]* %106, i64 0, i64 %108
  store i32 %103, i32* %109, align 4
  br label %110

110:                                              ; preds = %80
  %111 = load i32, i32* %11, align 4
  %112 = add nsw i32 %111, 1
  store i32 %112, i32* %11, align 4
  br label %76

113:                                              ; preds = %76
  %114 = load i32, i32* %10, align 4
  %115 = load i32, i32* %8, align 4
  %116 = sub nsw i32 %115, 1
  %117 = icmp eq i32 %114, %116
  br i1 %117, label %118, label %127

118:                                              ; preds = %113
  %119 = load i32, i32* %9, align 4
  %120 = sext i32 %119 to i64
  %121 = getelementptr inbounds [100 x [100 x i32]], [100 x [100 x i32]]* %4, i64 0, i64 %120
  %122 = load i32, i32* %10, align 4
  %123 = sext i32 %122 to i64
  %124 = getelementptr inbounds [100 x i32], [100 x i32]* %121, i64 0, i64 %123
  %125 = load i32, i32* %124, align 4
  %126 = call i32 (i8*, ...) @printf(i8* getelementptr inbounds ([4 x i8], [4 x i8]* @.str.2, i64 0, i64 0), i32 %125)
  br label %136

127:                                              ; preds = %113
  %128 = load i32, i32* %9, align 4
  %129 = sext i32 %128 to i64
  %130 = getelementptr inbounds [100 x [100 x i32]], [100 x [100 x i32]]* %4, i64 0, i64 %129
  %131 = load i32, i32* %10, align 4
  %132 = sext i32 %131 to i64
  %133 = getelementptr inbounds [100 x i32], [100 x i32]* %130, i64 0, i64 %132
  %134 = load i32, i32* %133, align 4
  %135 = call i32 (i8*, ...) @printf(i8* getelementptr inbounds ([4 x i8], [4 x i8]* @.str.3, i64 0, i64 0), i32 %134)
  br label %136

136:                                              ; preds = %127, %118
  br label %137

137:                                              ; preds = %136
  %138 = load i32, i32* %10, align 4
  %139 = add nsw i32 %138, 1
  store i32 %139, i32* %10, align 4
  br label %71

140:                                              ; preds = %71
  br label %141

141:                                              ; preds = %140
  %142 = load i32, i32* %9, align 4
  %143 = add nsw i32 %142, 1
  store i32 %143, i32* %9, align 4
  br label %66

144:                                              ; preds = %66
  %145 = load i32, i32* %1, align 4
  ret i32 %145
}

; Function Attrs: argmemonly nounwind willreturn
declare void @llvm.memset.p0i8.i64(i8* nocapture writeonly, i8, i64, i1 immarg) #1

declare dso_local i32 @__isoc99_scanf(i8*, ...) #2

declare dso_local i32 @printf(i8*, ...) #2


!llvm.module.flags = !{!0}
!llvm.ident = !{!1}

!0 = !{i32 1, !"wchar_size", i32 4}
!1 = !{!"clang version 10.0.0-4ubuntu1 "}
